target datalayout = "e-m:e-p270:32:32-p271:32:32-p272:64:64-i64:64-i128:128-f80:128-n8:16:32:64-S128"
target triple = "x86_64-pc-linux-gnu"

%struct.VP8LBackwardRefs = type { i32, i32, ptr, ptr, ptr, ptr }
%struct.PixOrCopyBlock = type { ptr, ptr, i32 }

; Function Attrs: nounwind uwtable
define hidden void @VP8LClearBackwardRefs(ptr noundef %0) #0 {
  %2 = alloca ptr, align 8
  store ptr %0, ptr %2, align 8, !tbaa !8
  %3 = load ptr, ptr %2, align 8, !tbaa !8
  %4 = getelementptr inbounds nuw %struct.VP8LBackwardRefs, ptr %3, i32 0, i32 3
  %5 = load ptr, ptr %4, align 8, !tbaa !11
  %6 = icmp ne ptr %5, null
  br i1 %6, label %7, label %14

7:                                                ; preds = %1
  %8 = load ptr, ptr %2, align 8, !tbaa !8
  %9 = getelementptr inbounds nuw %struct.VP8LBackwardRefs, ptr %8, i32 0, i32 4
  %10 = load ptr, ptr %9, align 8, !tbaa !15
  %11 = load ptr, ptr %2, align 8, !tbaa !8
  %12 = getelementptr inbounds nuw %struct.VP8LBackwardRefs, ptr %11, i32 0, i32 3
  %13 = load ptr, ptr %12, align 8, !tbaa !11
  store ptr %10, ptr %13, align 8, !tbaa !16
  br label %14

14:                                               ; preds = %7, %1
  %15 = load ptr, ptr %2, align 8, !tbaa !8
  %16 = getelementptr inbounds nuw %struct.VP8LBackwardRefs, ptr %15, i32 0, i32 2
  %17 = load ptr, ptr %16, align 8, !tbaa !17
  %18 = load ptr, ptr %2, align 8, !tbaa !8
  %19 = getelementptr inbounds nuw %struct.VP8LBackwardRefs, ptr %18, i32 0, i32 4
  store ptr %17, ptr %19, align 8, !tbaa !15
  %20 = load ptr, ptr %2, align 8, !tbaa !8
  %21 = getelementptr inbounds nuw %struct.VP8LBackwardRefs, ptr %20, i32 0, i32 2
  %22 = load ptr, ptr %2, align 8, !tbaa !8
  %23 = getelementptr inbounds nuw %struct.VP8LBackwardRefs, ptr %22, i32 0, i32 3
  store ptr %21, ptr %23, align 8, !tbaa !11
  %24 = load ptr, ptr %2, align 8, !tbaa !8
  %25 = getelementptr inbounds nuw %struct.VP8LBackwardRefs, ptr %24, i32 0, i32 5
  store ptr null, ptr %25, align 8, !tbaa !18
  %26 = load ptr, ptr %2, align 8, !tbaa !8
  %27 = getelementptr inbounds nuw %struct.VP8LBackwardRefs, ptr %26, i32 0, i32 2
  store ptr null, ptr %27, align 8, !tbaa !17
  ret void
}

; Function Attrs: nounwind uwtable
define hidden void @VP8LBackwardRefsClear(ptr noundef %0) #0 {
  %2 = alloca ptr, align 8
  %3 = alloca ptr, align 8
  store ptr %0, ptr %2, align 8, !tbaa !8
  %4 = load ptr, ptr %2, align 8, !tbaa !8
  call void @VP8LClearBackwardRefs(ptr noundef %4)
  br label %5

5:                                                ; preds = %10, %1
  %6 = load ptr, ptr %2, align 8, !tbaa !8
  %7 = getelementptr inbounds nuw %struct.VP8LBackwardRefs, ptr %6, i32 0, i32 4
  %8 = load ptr, ptr %7, align 8, !tbaa !15
  %9 = icmp ne ptr %8, null
  br i1 %9, label %10, label %22

10:                                               ; preds = %5
  call void @llvm.lifetime.start.p0(i64 8, ptr %3) #7
  %11 = load ptr, ptr %2, align 8, !tbaa !8
  %12 = getelementptr inbounds nuw %struct.VP8LBackwardRefs, ptr %11, i32 0, i32 4
  %13 = load ptr, ptr %12, align 8, !tbaa !15
  %14 = getelementptr inbounds nuw %struct.PixOrCopyBlock, ptr %13, i32 0, i32 0
  %15 = load ptr, ptr %14, align 8, !tbaa !19
  store ptr %15, ptr %3, align 8, !tbaa !16
  %16 = load ptr, ptr %2, align 8, !tbaa !8
  %17 = getelementptr inbounds nuw %struct.VP8LBackwardRefs, ptr %16, i32 0, i32 4
  %18 = load ptr, ptr %17, align 8, !tbaa !15
  call void @WebPSafeFree(ptr noundef %18)
  %19 = load ptr, ptr %3, align 8, !tbaa !16
  %20 = load ptr, ptr %2, align 8, !tbaa !8
  %21 = getelementptr inbounds nuw %struct.VP8LBackwardRefs, ptr %20, i32 0, i32 4
  store ptr %19, ptr %21, align 8, !tbaa !15
  call void @llvm.lifetime.end.p0(i64 8, ptr %3) #7
  br label %5, !llvm.loop !21

22:                                               ; preds = %5
  ret void
}