; Function Attrs: nounwind uwtable
define hidden void @VP8LBackwardRefsClear(ptr noundef %0) local_unnamed_addr #3 {
  %2 = getelementptr inbounds nuw i8, ptr %0, i64 16
  %3 = load ptr, ptr %2, align 8, !tbaa !6
  %.not.i = icmp eq ptr %3, null
  br i1 %.not.i, label %VP8LClearBackwardRefs.exit, label %4

4:                                                ; preds = %1
  %5 = getelementptr inbounds nuw i8, ptr %0, i64 24
  %6 = load ptr, ptr %5, align 8, !tbaa !12
  store ptr %6, ptr %3, align 8, !tbaa !13
  br label %VP8LClearBackwardRefs.exit

VP8LClearBackwardRefs.exit:                       ; preds = %1, %4
  %7 = getelementptr inbounds nuw i8, ptr %0, i64 8
  %8 = load ptr, ptr %7, align 8, !tbaa !14
  %9 = getelementptr inbounds nuw i8, ptr %0, i64 24
  store ptr %8, ptr %9, align 8, !tbaa !12
  store ptr %7, ptr %2, align 8, !tbaa !6
  %10 = getelementptr inbounds nuw i8, ptr %0, i64 32
  store ptr null, ptr %10, align 8, !tbaa !15
  store ptr null, ptr %7, align 8, !tbaa !14
  %.not6 = icmp eq ptr %8, null
  br i1 %.not6, label %._crit_edge, label %.lr.ph

.lr.ph:                                           ; preds = %VP8LClearBackwardRefs.exit, %.lr.ph
  %11 = phi ptr [ %12, %.lr.ph ], [ %8, %VP8LClearBackwardRefs.exit ]
  %12 = load ptr, ptr %11, align 8, !tbaa !16
  tail call void @WebPSafeFree(ptr noundef nonnull %11) #11
  store ptr %12, ptr %9, align 8, !tbaa !12
  %.not = icmp eq ptr %12, null
  br i1 %.not, label %._crit_edge, label %.lr.ph, !llvm.loop !18

._crit_edge:                                      ; preds = %.lr.ph, %VP8LClearBackwardRefs.exit
  ret void
}